; Function Attrs: mustprogress uwtable
define hidden noundef ptr @get_datatype_sort_constructor_core(ptr noundef %c, ptr noundef %t, i32 noundef %idx) local_unnamed_addr #3 {
entry:
  %m_error_code.i = getelementptr inbounds i8, ptr %c, i64 1560
  store i32 0, ptr %m_error_code.i, align 8
  %cmp = icmp eq ptr %t, null
  br i1 %cmp, label %if.then, label %lor.lhs.false

lor.lhs.false:                                    ; preds = %entry
  %m_ref_count.i = getelementptr inbounds i8, ptr %t, i64 8
  %0 = load i32, ptr %m_ref_count.i, align 4
  %cmp2.not = icmp eq i32 %0, 0
  br i1 %cmp2.not, label %if.then, label %if.end

if.then:                                          ; preds = %lor.lhs.false, %entry
  tail call void @_ZN3api7context14set_error_codeE13Z3_error_codePKc(ptr noundef nonnull align 8 dereferenceable(3048) %c, i32 noundef 3, ptr noundef nonnull @.str.2)
  br label %return

if.end:                                           ; preds = %lor.lhs.false
  %m_dt_plugin.i = getelementptr inbounds i8, ptr %c, i64 1520
  %1 = load ptr, ptr %m_dt_plugin.i, align 8
  %call.i = tail call noundef nonnull align 8 dereferenceable(288) ptr @_ZNK8datatype4decl6plugin1uEv(ptr noundef nonnull align 8 dereferenceable(101) %1)
  %call.i13 = tail call noundef i32 @_ZNK8datatype4util3fidEv(ptr noundef nonnull align 8 dereferenceable(288) %call.i)
  %m_info.i.i.i.i = getelementptr inbounds i8, ptr %t, i64 24
  %2 = load ptr, ptr %m_info.i.i.i.i, align 8
  %cmp.i.i.i.i = icmp eq ptr %2, null
  br i1 %cmp.i.i.i.i, label %if.then8, label %_ZNK4decl13get_family_idEv.exit.thread.i.i.i

_ZNK4decl13get_family_idEv.exit.thread.i.i.i:     ; preds = %if.end
  %3 = load i32, ptr %2, align 8
  %cmp6.i.i.i = icmp eq i32 %3, %call.i13
  br i1 %cmp6.i.i.i, label %_ZNK8datatype4util11is_datatypeEPK4sort.exit, label %if.then8

_ZNK8datatype4util11is_datatypeEPK4sort.exit:     ; preds = %_ZNK4decl13get_family_idEv.exit.thread.i.i.i
  %m_kind.i.i.i.i.i = getelementptr inbounds i8, ptr %2, i64 4
  %4 = load i32, ptr %m_kind.i.i.i.i.i, align 4
  %5 = icmp eq i32 %4, 0
  br i1 %5, label %if.end10, label %if.then8

if.then8:                                         ; preds = %if.end, %_ZNK4decl13get_family_idEv.exit.thread.i.i.i, %_ZNK8datatype4util11is_datatypeEPK4sort.exit
  tail call void @_ZN3api7context14set_error_codeE13Z3_error_codePKc(ptr noundef nonnull align 8 dereferenceable(3048) %c, i32 noundef 3, ptr noundef null)
  br label %return

if.end10:                                         ; preds = %_ZNK8datatype4util11is_datatypeEPK4sort.exit
  %call11 = tail call noundef ptr @_ZN8datatype4util25get_datatype_constructorsEP4sort(ptr noundef nonnull align 8 dereferenceable(288) %call.i, ptr noundef nonnull %t)
  %6 = load ptr, ptr %call11, align 8
  %cmp.i = icmp eq ptr %6, null
  br i1 %cmp.i, label %if.then14, label %_ZNK6vectorIP9func_declLb0EjE4sizeEv.exit

_ZNK6vectorIP9func_declLb0EjE4sizeEv.exit:        ; preds = %if.end10
  %arrayidx.i = getelementptr inbounds i8, ptr %6, i64 -4
  %7 = load i32, ptr %arrayidx.i, align 4
  %cmp13.not = icmp ugt i32 %7, %idx
  br i1 %cmp13.not, label %if.end16, label %if.then14

if.then14:                                        ; preds = %if.end10, %_ZNK6vectorIP9func_declLb0EjE4sizeEv.exit
  tail call void @_ZN3api7context14set_error_codeE13Z3_error_codePKc(ptr noundef nonnull align 8 dereferenceable(3048) %c, i32 noundef 3, ptr noundef null)
  br label %return

if.end16:                                         ; preds = %_ZNK6vectorIP9func_declLb0EjE4sizeEv.exit
  %idxprom.i = zext i32 %idx to i64
  %arrayidx.i14 = getelementptr inbounds ptr, ptr %6, i64 %idxprom.i
  %8 = load ptr, ptr %arrayidx.i14, align 8
  tail call void @_ZN3api7context14save_ast_trailEP3ast(ptr noundef nonnull align 8 dereferenceable(3048) %c, ptr noundef %8)
  br label %return

return:                                           ; preds = %if.end16, %if.then14, %if.then8, %if.then
  %retval.0 = phi ptr [ null, %if.then ], [ null, %if.then14 ], [ %8, %if.end16 ], [ null, %if.then8 ]
  ret ptr %retval.0
}